; Function Attrs: nofree norecurse nosync nounwind memory(argmem: readwrite) uwtable
define internal void @_blend_vividlight(ptr noundef readonly captures(none) %0, ptr noundef readonly captures(none) %1, ptr noundef writeonly captures(none) %2, ptr noalias noundef readonly captures(none) %3, i64 noundef %4) unnamed_addr #10 {
  %.not = icmp eq i64 %4, 0
  br i1 %.not, label %._crit_edge, label %.lr.ph

._crit_edge:                                      ; preds = %9, %5
  ret void

.lr.ph:                                           ; preds = %5, %9
  %.036 = phi i64 [ %12, %9 ], [ 0, %5 ]
  %.03135 = phi i64 [ %13, %9 ], [ 0, %5 ]
  %6 = getelementptr inbounds nuw float, ptr %3, i64 %.036
  %7 = load float, ptr %6, align 4, !tbaa !36
  %8 = fmul reassoc nsz arcp contract afn float %7, %7
  br label %14

9:                                                ; preds = %38
  %10 = or disjoint i64 %.03135, 3
  %11 = getelementptr inbounds nuw float, ptr %2, i64 %10
  store float %7, ptr %11, align 4, !tbaa !36
  %12 = add nuw i64 %.036, 1
  %13 = add i64 %.03135, 4
  %exitcond38.not = icmp eq i64 %12, %4
  br i1 %exitcond38.not, label %._crit_edge, label %.lr.ph

14:                                               ; preds = %.lr.ph, %38
  %indvars.iv = phi i64 [ 0, %.lr.ph ], [ %indvars.iv.next, %38 ]
  %15 = or disjoint i64 %.03135, %indvars.iv
  %16 = getelementptr inbounds nuw float, ptr %0, i64 %15
  %17 = load float, ptr %16, align 4, !tbaa !36
  %18 = tail call reassoc nsz arcp contract afn float @llvm.maxnum.f32(float %17, float 0.000000e+00)
  %19 = tail call reassoc nsz arcp contract afn noundef float @llvm.minnum.f32(float %18, float 1.000000e+00)
  %20 = getelementptr inbounds nuw float, ptr %1, i64 %15
  %21 = load float, ptr %20, align 4, !tbaa !36
  %22 = tail call reassoc nsz arcp contract afn float @llvm.maxnum.f32(float %21, float 0.000000e+00)
  %23 = tail call reassoc nsz arcp contract afn noundef float @llvm.minnum.f32(float %22, float 1.000000e+00)
  %24 = fcmp reassoc nsz arcp contract afn ogt float %23, 5.000000e-01
  br i1 %24, label %25, label %31

25:                                               ; preds = %14
  %26 = fcmp reassoc nsz arcp contract afn ult float %23, 1.000000e+00
  br i1 %26, label %27, label %38

27:                                               ; preds = %25
  %28 = fmul reassoc nsz arcp contract afn float %23, 2.000000e+00
  %29 = fsub reassoc nsz arcp contract afn float 2.000000e+00, %28
  %30 = fdiv reassoc nsz arcp contract afn float %19, %29
  br label %38

31:                                               ; preds = %14
  %32 = fcmp reassoc nsz arcp contract afn ugt float %23, 0.000000e+00
  br i1 %32, label %33, label %38

33:                                               ; preds = %31
  %34 = fsub reassoc nsz arcp contract afn float 1.000000e+00, %19
  %35 = fmul reassoc nsz arcp contract afn float %23, 2.000000e+00
  %36 = fdiv reassoc nsz arcp contract afn float %34, %35
  %37 = fsub reassoc nsz arcp contract afn float 1.000000e+00, %36
  br label %38

38:                                               ; preds = %33, %31, %27, %25
  %39 = phi reassoc nsz arcp contract afn float [ %30, %27 ], [ 1.000000e+00, %25 ], [ %37, %33 ], [ 0.000000e+00, %31 ]
  %40 = fsub reassoc nsz arcp contract afn float %39, %19
  %41 = fmul reassoc nsz arcp contract afn float %8, %40
  %42 = fadd reassoc nsz arcp contract afn float %41, %19
  %43 = tail call reassoc nsz arcp contract afn float @llvm.maxnum.f32(float %42, float 0.000000e+00)
  %44 = tail call reassoc nsz arcp contract afn noundef float @llvm.minnum.f32(float %43, float 1.000000e+00)
  %45 = getelementptr inbounds nuw float, ptr %2, i64 %15
  store float %44, ptr %45, align 4, !tbaa !36
  %indvars.iv.next = add nuw nsw i64 %indvars.iv, 1
  %exitcond.not = icmp eq i64 %indvars.iv.next, 3
  br i1 %exitcond.not, label %9, label %14
}